
bin/simpleoutput_plusdelay.o:     file format elf32-avr


Disassembly of section .text:

00000000 <delay>:
   0:	cf 93       	push	r28
   2:	df 93       	push	r29
   4:	00 d0       	rcall	.+0      	; 0x6 <__zero_reg__+0x5>
   6:	cd b7       	in	r28, 0x3d	; 61
   8:	de b7       	in	r29, 0x3e	; 62
   a:	9a 83       	std	Y+2, r25	; 0x02
   c:	89 83       	std	Y+1, r24	; 0x01
   e:	06 c0       	rjmp	.+12     	; 0x1c <__zero_reg__+0x1b>
  10:	00 00       	nop
  12:	89 81       	ldd	r24, Y+1	; 0x01
  14:	9a 81       	ldd	r25, Y+2	; 0x02
  16:	01 97       	sbiw	r24, 0x01	; 1
  18:	9a 83       	std	Y+2, r25	; 0x02
  1a:	89 83       	std	Y+1, r24	; 0x01
  1c:	89 81       	ldd	r24, Y+1	; 0x01
  1e:	9a 81       	ldd	r25, Y+2	; 0x02
  20:	18 16       	cp	r1, r24
  22:	19 06       	cpc	r1, r25
  24:	ac f3       	brlt	.-22     	; 0x10 <__zero_reg__+0xf>
  26:	00 00       	nop
  28:	0f 90       	pop	r0
  2a:	0f 90       	pop	r0
  2c:	df 91       	pop	r29
  2e:	cf 91       	pop	r28
  30:	08 95       	ret

00000032 <main>:
  32:	cf 93       	push	r28
  34:	df 93       	push	r29
  36:	cd b7       	in	r28, 0x3d	; 61
  38:	de b7       	in	r29, 0x3e	; 62
  3a:	87 e3       	ldi	r24, 0x37	; 55
  3c:	90 e0       	ldi	r25, 0x00	; 0
  3e:	2f ef       	ldi	r18, 0xFF	; 255
  40:	e8 2f       	mov	r30, r24
  42:	f9 2f       	mov	r31, r25
  44:	20 83       	st	Z, r18
  46:	88 e3       	ldi	r24, 0x38	; 56
  48:	90 e0       	ldi	r25, 0x00	; 0
  4a:	20 ef       	ldi	r18, 0xF0	; 240
  4c:	e8 2f       	mov	r30, r24
  4e:	f9 2f       	mov	r31, r25
  50:	20 83       	st	Z, r18
  52:	88 e3       	ldi	r24, 0x38	; 56
  54:	90 e0       	ldi	r25, 0x00	; 0
  56:	28 e3       	ldi	r18, 0x38	; 56
  58:	30 e0       	ldi	r19, 0x00	; 0
  5a:	e2 2f       	mov	r30, r18
  5c:	f3 2f       	mov	r31, r19
  5e:	20 81       	ld	r18, Z
  60:	20 95       	com	r18
  62:	e8 2f       	mov	r30, r24
  64:	f9 2f       	mov	r31, r25
  66:	20 83       	st	Z, r18
  68:	88 ec       	ldi	r24, 0xC8	; 200
  6a:	90 e0       	ldi	r25, 0x00	; 0
  6c:	c9 df       	rcall	.-110    	; 0x0 <delay>
  6e:	f1 cf       	rjmp	.-30     	; 0x52 <__SREG__+0x13>
